; ModuleID = '38/1491.c'
source_filename = "38/1491.c"
target datalayout = "e-m:e-p270:32:32-p271:32:32-p272:64:64-i64:64-f80:128-n8:16:32:64-S128"
target triple = "x86_64-pc-linux-gnu"

@.str = private unnamed_addr constant [3 x i8] c"%d\00", align 1
@.str.1 = private unnamed_addr constant [4 x i8] c"%lf\00", align 1
@.str.2 = private unnamed_addr constant [7 x i8] c"%.5lf\0A\00", align 1

; Function Attrs: noinline nounwind uwtable
define dso_local void @main() #0 {
  %1 = alloca i32, align 4
  %2 = alloca i32, align 4
  %3 = alloca i32, align 4
  %4 = alloca i32, align 4
  %5 = alloca double, align 8
  %6 = alloca double, align 8
  %7 = alloca double*, align 8
  %8 = call i32 (i8*, ...) @__isoc99_scanf(i8* getelementptr inbounds ([3 x i8], [3 x i8]* @.str, i64 0, i64 0), i32* %1)
  store i32 0, i32* %3, align 4
  br label %9

9:                                                ; preds = %42, %0
  %10 = load i32, i32* %3, align 4
  %11 = load i32, i32* %1, align 4
  %12 = icmp slt i32 %10, %11
  br i1 %12, label %13, label %45

13:                                               ; preds = %9
  %14 = call i32 (i8*, ...) @__isoc99_scanf(i8* getelementptr inbounds ([3 x i8], [3 x i8]* @.str, i64 0, i64 0), i32* %2)
  %15 = load i32, i32* %2, align 4
  %16 = sext i32 %15 to i64
  %17 = call noalias i8* @calloc(i64 %16, i64 8) #3
  %18 = bitcast i8* %17 to double*
  store double* %18, double** %7, align 8
  store i32 0, i32* %4, align 4
  br label %19

19:                                               ; preds = %29, %13
  %20 = load i32, i32* %4, align 4
  %21 = load i32, i32* %2, align 4
  %22 = icmp slt i32 %20, %21
  br i1 %22, label %23, label %32

23:                                               ; preds = %19
  %24 = load double*, double** %7, align 8
  %25 = load i32, i32* %4, align 4
  %26 = sext i32 %25 to i64
  %27 = getelementptr inbounds double, double* %24, i64 %26
  %28 = call i32 (i8*, ...) @__isoc99_scanf(i8* getelementptr inbounds ([4 x i8], [4 x i8]* @.str.1, i64 0, i64 0), double* %27)
  br label %29

29:                                               ; preds = %23
  %30 = load i32, i32* %4, align 4
  %31 = add nsw i32 %30, 1
  store i32 %31, i32* %4, align 4
  br label %19

32:                                               ; preds = %19
  %33 = load double*, double** %7, align 8
  %34 = load i32, i32* %2, align 4
  %35 = call double @aver(double* %33, i32 %34)
  store double %35, double* %5, align 8
  %36 = load double*, double** %7, align 8
  %37 = load double, double* %5, align 8
  %38 = load i32, i32* %2, align 4
  %39 = call double @ss(double* %36, double %37, i32 %38)
  store double %39, double* %6, align 8
  %40 = load double, double* %6, align 8
  %41 = call i32 (i8*, ...) @printf(i8* getelementptr inbounds ([7 x i8], [7 x i8]* @.str.2, i64 0, i64 0), double %40)
  br label %42

42:                                               ; preds = %32
  %43 = load i32, i32* %3, align 4
  %44 = add nsw i32 %43, 1
  store i32 %44, i32* %3, align 4
  br label %9

45:                                               ; preds = %9
  ret void
}

declare dso_local i32 @__isoc99_scanf(i8*, ...) #1

; Function Attrs: nounwind
declare dso_local noalias i8* @calloc(i64, i64) #2

; Function Attrs: noinline nounwind uwtable
define dso_local double @aver(double* %0, i32 %1) #0 {
  %3 = alloca double*, align 8
  %4 = alloca i32, align 4
  %5 = alloca double, align 8
  %6 = alloca i32, align 4
  store double* %0, double** %3, align 8
  store i32 %1, i32* %4, align 4
  store double 0.000000e+00, double* %5, align 8
  store i32 0, i32* %6, align 4
  br label %7

7:                                                ; preds = %19, %2
  %8 = load i32, i32* %6, align 4
  %9 = load i32, i32* %4, align 4
  %10 = icmp slt i32 %8, %9
  br i1 %10, label %11, label %22

11:                                               ; preds = %7
  %12 = load double*, double** %3, align 8
  %13 = load i32, i32* %6, align 4
  %14 = sext i32 %13 to i64
  %15 = getelementptr inbounds double, double* %12, i64 %14
  %16 = load double, double* %15, align 8
  %17 = load double, double* %5, align 8
  %18 = fadd double %17, %16
  store double %18, double* %5, align 8
  br label %19

19:                                               ; preds = %11
  %20 = load i32, i32* %6, align 4
  %21 = add nsw i32 %20, 1
  store i32 %21, i32* %6, align 4
  br label %7

22:                                               ; preds = %7
  %23 = load double, double* %5, align 8
  %24 = load i32, i32* %4, align 4
  %25 = sitofp i32 %24 to double
  %26 = fdiv double %23, %25
  ret double %26
}

; Function Attrs: noinline nounwind uwtable
define dso_local double @ss(double* %0, double %1, i32 %2) #0 {
  %4 = alloca double*, align 8
  %5 = alloca double, align 8
  %6 = alloca i32, align 4
  %7 = alloca double, align 8
  %8 = alloca i32, align 4
  store double* %0, double** %4, align 8
  store double %1, double* %5, align 8
  store i32 %2, i32* %6, align 4
  store double 0.000000e+00, double* %7, align 8
  store i32 0, i32* %8, align 4
  br label %9

9:                                                ; preds = %24, %3
  %10 = load i32, i32* %8, align 4
  %11 = load i32, i32* %6, align 4
  %12 = icmp slt i32 %10, %11
  br i1 %12, label %13, label %27

13:                                               ; preds = %9
  %14 = load double*, double** %4, align 8
  %15 = load i32, i32* %8, align 4
  %16 = sext i32 %15 to i64
  %17 = getelementptr inbounds double, double* %14, i64 %16
  %18 = load double, double* %17, align 8
  %19 = load double, double* %5, align 8
  %20 = fsub double %18, %19
  %21 = call double @pow(double %20, double 2.000000e+00) #3
  %22 = load double, double* %7, align 8
  %23 = fadd double %22, %21
  store double %23, double* %7, align 8
  br label %24

24:                                               ; preds = %13
  %25 = load i32, i32* %8, align 4
  %26 = add nsw i32 %25, 1
  store i32 %26, i32* %8, align 4
  br label %9

27:                                               ; preds = %9
  %28 = load double, double* %7, align 8
  %29 = load i32, i32* %6, align 4
  %30 = sitofp i32 %29 to double
  %31 = fdiv double %28, %30
  %32 = call double @sqrt(double %31) #3
  ret double %32
}

declare dso_local i32 @printf(i8*, ...) #1

; Function Attrs: nounwind
declare dso_local double @pow(double, double) #2

; Function Attrs: nounwind
declare dso_local double @sqrt(double) #2


!llvm.module.flags = !{!0}
!llvm.ident = !{!1}

!0 = !{i32 1, !"wchar_size", i32 4}
!1 = !{!"clang version 10.0.0-4ubuntu1 "}
